target datalayout = "e-m:e-p270:32:32-p271:32:32-p272:64:64-i64:64-i128:128-f80:128-n8:16:32:64-S128"
target triple = "x86_64-pc-linux-gnu"

%class.GraphAlg = type { ptr, ptr }
%"class.V3List<V3GraphVertex, &V3GraphVertex::links>::SimpleItertatorImpl" = type { ptr }
%class.GraphAlgWeakly = type { %class.GraphAlg }
%class.V3Graph = type { ptr, %class.V3List }
%class.V3List = type { ptr, ptr }
%class.V3ListLinks = type { ptr, ptr }
%class.V3GraphVertex = type { ptr, %class.V3ListLinks, %class.V3List.0, %class.V3List.1, double, i32, i32, %union.anon }
%class.V3List.0 = type { ptr, ptr }
%class.V3List.1 = type { ptr, ptr }
%union.anon = type { ptr }

; Function Attrs: mustprogress nounwind uwtable
define linkonce_odr dso_local noundef nonnull align 8 dereferenceable(16) ptr @_ZN13V3GraphVertex5linksEv(ptr noundef nonnull align 8 dereferenceable(80) %0) #5 comdat align 2 {
  %2 = alloca ptr, align 8
  store ptr %0, ptr %2, align 8
  %3 = load ptr, ptr %2, align 8
  %4 = getelementptr inbounds %class.V3GraphVertex, ptr %3, i32 0, i32 1
  ret ptr %4
}

; Function Attrs: mustprogress uwtable
define linkonce_odr dso_local ptr @_ZN6V3ListI13V3GraphVertexXadL_ZNS0_5linksEvEES0_E3endEv(ptr noundef nonnull align 8 dereferenceable(16) %0) #4 comdat align 2 {
  %2 = alloca ptr, align 8
  %3 = alloca ptr, align 8
  %4 = alloca %"class.V3List<V3GraphVertex, &V3GraphVertex::links>::SimpleItertatorImpl", align 8
  %5 = alloca ptr, align 8
  store ptr %0, ptr %5, align 8
  store ptr %4, ptr %2, align 8
  store ptr null, ptr %3, align 8
  %6 = load ptr, ptr %2, align 8
  %7 = load ptr, ptr %3, align 8
  store ptr %7, ptr %6, align 8
  %8 = getelementptr inbounds %"class.V3List<V3GraphVertex, &V3GraphVertex::links>::SimpleItertatorImpl", ptr %4, i32 0, i32 0
  %9 = load ptr, ptr %8, align 8
  ret ptr %9
}

; Function Attrs: mustprogress uwtable
define linkonce_odr dso_local ptr @_ZN6V3ListI13V3GraphVertexXadL_ZNS0_5linksEvEES0_E5beginEv(ptr noundef nonnull align 8 dereferenceable(16) %0) #4 comdat align 2 {
  %2 = alloca ptr, align 8
  %3 = alloca ptr, align 8
  %4 = alloca %"class.V3List<V3GraphVertex, &V3GraphVertex::links>::SimpleItertatorImpl", align 8
  %5 = alloca ptr, align 8
  store ptr %0, ptr %5, align 8
  %6 = load ptr, ptr %5, align 8
  %7 = getelementptr inbounds %class.V3List, ptr %6, i32 0, i32 0
  %8 = load ptr, ptr %7, align 8
  store ptr %4, ptr %2, align 8
  store ptr %8, ptr %3, align 8
  %9 = load ptr, ptr %2, align 8
  %10 = load ptr, ptr %3, align 8
  store ptr %10, ptr %9, align 8
  %11 = getelementptr inbounds %"class.V3List<V3GraphVertex, &V3GraphVertex::links>::SimpleItertatorImpl", ptr %4, i32 0, i32 0
  %12 = load ptr, ptr %11, align 8
  ret ptr %12
}

; Function Attrs: mustprogress nounwind uwtable
define linkonce_odr dso_local noundef nonnull align 8 dereferenceable(16) ptr @_ZN7V3Graph8verticesEv(ptr noundef nonnull align 8 dereferenceable(24) %0) #5 comdat align 2 {
  %2 = alloca ptr, align 8
  store ptr %0, ptr %2, align 8
  %3 = load ptr, ptr %2, align 8
  %4 = getelementptr inbounds %class.V3Graph, ptr %3, i32 0, i32 1
  ret ptr %4
}

; Function Attrs: mustprogress uwtable
define linkonce_odr dso_local void @_ZN14GraphAlgWeakly4mainEv(ptr noundef nonnull align 8 dereferenceable(16) %0) #4 comdat align 2 {
  %2 = alloca ptr, align 8
  %3 = alloca ptr, align 8
  %4 = alloca ptr, align 8
  %5 = alloca ptr, align 8
  %6 = alloca ptr, align 8
  %7 = alloca ptr, align 8
  %8 = alloca ptr, align 8
  %9 = alloca ptr, align 8
  %10 = alloca ptr, align 8
  %11 = alloca ptr, align 8
  %12 = alloca ptr, align 8
  %13 = alloca i32, align 4
  %14 = alloca ptr, align 8
  %15 = alloca %"class.V3List<V3GraphVertex, &V3GraphVertex::links>::SimpleItertatorImpl", align 8
  %16 = alloca %"class.V3List<V3GraphVertex, &V3GraphVertex::links>::SimpleItertatorImpl", align 8
  %17 = alloca ptr, align 8
  store ptr %0, ptr %12, align 8
  %18 = load ptr, ptr %12, align 8
  %19 = getelementptr inbounds %class.GraphAlg, ptr %18, i32 0, i32 0
  %20 = load ptr, ptr %19, align 8
  call void @_ZN7V3Graph11clearColorsEv(ptr noundef nonnull align 8 dereferenceable(24) %20)
  store i32 0, ptr %13, align 4
  %21 = getelementptr inbounds %class.GraphAlg, ptr %18, i32 0, i32 0
  %22 = load ptr, ptr %21, align 8
  %23 = call noundef nonnull align 8 dereferenceable(16) ptr @_ZN7V3Graph8verticesEv(ptr noundef nonnull align 8 dereferenceable(24) %22)
  store ptr %23, ptr %14, align 8
  %24 = load ptr, ptr %14, align 8
  %25 = call ptr @_ZN6V3ListI13V3GraphVertexXadL_ZNS0_5linksEvEES0_E5beginEv(ptr noundef nonnull align 8 dereferenceable(16) %24)
  %26 = getelementptr inbounds %"class.V3List<V3GraphVertex, &V3GraphVertex::links>::SimpleItertatorImpl", ptr %15, i32 0, i32 0
  store ptr %25, ptr %26, align 8
  %27 = load ptr, ptr %14, align 8
  %28 = call ptr @_ZN6V3ListI13V3GraphVertexXadL_ZNS0_5linksEvEES0_E3endEv(ptr noundef nonnull align 8 dereferenceable(16) %27)
  %29 = getelementptr inbounds %"class.V3List<V3GraphVertex, &V3GraphVertex::links>::SimpleItertatorImpl", ptr %16, i32 0, i32 0
  store ptr %28, ptr %29, align 8
  br label %30

30:                                               ; preds = %57, %1
  store ptr %15, ptr %10, align 8
  store ptr %16, ptr %11, align 8
  %31 = load ptr, ptr %10, align 8
  %32 = load ptr, ptr %31, align 8
  %33 = load ptr, ptr %11, align 8
  %34 = load ptr, ptr %33, align 8
  %35 = icmp ne ptr %32, %34
  br i1 %35, label %36, label %64

36:                                               ; preds = %30
  store ptr %15, ptr %9, align 8
  %37 = load ptr, ptr %9, align 8
  %38 = load ptr, ptr %37, align 8
  store ptr %38, ptr %6, align 8
  %39 = load ptr, ptr %6, align 8
  store ptr %39, ptr %5, align 8
  %40 = load ptr, ptr %5, align 8
  %41 = call noundef nonnull align 8 dereferenceable(16) ptr @_ZN13V3GraphVertex5linksEv(ptr noundef nonnull align 8 dereferenceable(80) %40)
  %42 = load ptr, ptr %41, align 8
  %43 = load ptr, ptr %37, align 8
  store ptr %42, ptr %2, align 8
  store ptr %43, ptr %3, align 8
  %44 = load ptr, ptr %2, align 8
  %45 = icmp ne ptr %44, null
  br i1 %45, label %46, label %48

46:                                               ; preds = %36
  %47 = load ptr, ptr %2, align 8
  br label %50

48:                                               ; preds = %36
  %49 = load ptr, ptr %3, align 8
  br label %50

50:                                               ; preds = %48, %46
  %51 = phi ptr [ %47, %46 ], [ %49, %48 ]
  call void @llvm.prefetch.p0(ptr %51, i32 1, i32 3, i32 1)
  %52 = load ptr, ptr %37, align 8
  store ptr %52, ptr %17, align 8
  %53 = load i32, ptr %13, align 4
  %54 = add i32 %53, 1
  store i32 %54, ptr %13, align 4
  %55 = load ptr, ptr %17, align 8
  %56 = load i32, ptr %13, align 4
  call void @_ZN14GraphAlgWeakly13vertexIterateEP13V3GraphVertexj(ptr noundef nonnull align 8 dereferenceable(16) %18, ptr noundef %55, i32 noundef %56)
  br label %57

57:                                               ; preds = %50
  store ptr %15, ptr %8, align 8
  %58 = load ptr, ptr %8, align 8
  %59 = load ptr, ptr %58, align 8
  store ptr %59, ptr %7, align 8
  %60 = load ptr, ptr %7, align 8
  store ptr %60, ptr %4, align 8
  %61 = load ptr, ptr %4, align 8
  %62 = call noundef nonnull align 8 dereferenceable(16) ptr @_ZN13V3GraphVertex5linksEv(ptr noundef nonnull align 8 dereferenceable(80) %61)
  %63 = load ptr, ptr %62, align 8
  store ptr %63, ptr %58, align 8
  br label %30

64:                                               ; preds = %30
  ret void
}

; Function Attrs: mustprogress nounwind uwtable
define linkonce_odr dso_local void @_ZN8GraphAlgI7V3GraphEC2EPS0_PFbPK11V3GraphEdgeE(ptr noundef nonnull align 8 dereferenceable(16) %0, ptr noundef %1, ptr noundef %2) unnamed_addr #5 comdat align 2 {
  %4 = alloca ptr, align 8
  %5 = alloca ptr, align 8
  %6 = alloca ptr, align 8
  store ptr %0, ptr %4, align 8
  store ptr %1, ptr %5, align 8
  store ptr %2, ptr %6, align 8
  %7 = load ptr, ptr %4, align 8
  %8 = getelementptr inbounds %class.GraphAlg, ptr %7, i32 0, i32 0
  %9 = load ptr, ptr %5, align 8
  store ptr %9, ptr %8, align 8
  %10 = getelementptr inbounds %class.GraphAlg, ptr %7, i32 0, i32 1
  %11 = load ptr, ptr %6, align 8
  store ptr %11, ptr %10, align 8
  ret void
}

; Function Attrs: mustprogress uwtable
define linkonce_odr dso_local void @_ZN14GraphAlgWeaklyC2EP7V3GraphPFbPK11V3GraphEdgeE(ptr noundef nonnull align 8 dereferenceable(16) %0, ptr noundef %1, ptr noundef %2) unnamed_addr #4 comdat align 2 {
  %4 = alloca ptr, align 8
  %5 = alloca ptr, align 8
  %6 = alloca ptr, align 8
  store ptr %0, ptr %4, align 8
  store ptr %1, ptr %5, align 8
  store ptr %2, ptr %6, align 8
  %7 = load ptr, ptr %4, align 8
  %8 = load ptr, ptr %5, align 8
  %9 = load ptr, ptr %6, align 8
  call void @_ZN8GraphAlgI7V3GraphEC2EPS0_PFbPK11V3GraphEdgeE(ptr noundef nonnull align 8 dereferenceable(16) %7, ptr noundef %8, ptr noundef %9)
  call void @_ZN14GraphAlgWeakly4mainEv(ptr noundef nonnull align 8 dereferenceable(16) %7)
  ret void
}

; Function Attrs: mustprogress uwtable
define dso_local void @_ZN7V3Graph15weaklyConnectedEPFbPK11V3GraphEdgeE(ptr noundef nonnull align 8 dereferenceable(24) %0, ptr noundef %1) #4 align 2 {
  %3 = alloca ptr, align 8
  %4 = alloca ptr, align 8
  %5 = alloca %class.GraphAlgWeakly, align 8
  store ptr %0, ptr %3, align 8
  store ptr %1, ptr %4, align 8
  %6 = load ptr, ptr %3, align 8
  %7 = load ptr, ptr %4, align 8
  call void @_ZN14GraphAlgWeaklyC2EP7V3GraphPFbPK11V3GraphEdgeE(ptr noundef nonnull align 8 dereferenceable(16) %5, ptr noundef %6, ptr noundef %7)
  ret void
}