; Function Attrs: mustprogress uwtable
define dso_local void @_ZN7V3Graph15weaklyConnectedEPFbPK11V3GraphEdgeE(ptr noundef nonnull align 8 dereferenceable(24) %0, ptr noundef %1) #3 align 2 {
  %3 = alloca %class.GraphAlgWeakly, align 8
  store ptr %0, ptr %3, align 8
  %4 = getelementptr inbounds i8, ptr %3, i64 8
  store ptr %1, ptr %4, align 8
  tail call void @_ZN7V3Graph11clearColorsEv(ptr noundef nonnull align 8 dereferenceable(24) %0)
  %5 = getelementptr inbounds i8, ptr %0, i64 8
  %.sroa.0.022.i.i = load ptr, ptr %5, align 8
  %.not23.i.i = icmp eq ptr %.sroa.0.022.i.i, null
  br i1 %.not23.i.i, label %_ZN14GraphAlgWeaklyC2EP7V3GraphPFbPK11V3GraphEdgeE.exit, label %.lr.ph.i.i

.lr.ph.i.i:                                       ; preds = %2, %.lr.ph.i.i
  %.sroa.0.025.i.i = phi ptr [ %.sroa.0.0.i.i, %.lr.ph.i.i ], [ %.sroa.0.022.i.i, %2 ]
  %.024.i.i = phi i32 [ %9, %.lr.ph.i.i ], [ 0, %2 ]
  %6 = getelementptr inbounds i8, ptr %.sroa.0.025.i.i, i64 8
  %7 = load ptr, ptr %6, align 8
  %.not21.i.i = icmp eq ptr %7, null
  %8 = select i1 %.not21.i.i, ptr %.sroa.0.025.i.i, ptr %7
  call void @llvm.prefetch.p0(ptr nonnull %8, i32 1, i32 3, i32 1)
  %9 = add i32 %.024.i.i, 1
  call void @_ZN14GraphAlgWeakly13vertexIterateEP13V3GraphVertexj(ptr noundef nonnull align 8 dereferenceable(16) %3, ptr noundef nonnull %.sroa.0.025.i.i, i32 noundef %9)
  %.sroa.0.0.i.i = load ptr, ptr %6, align 8
  %.not.i.i = icmp eq ptr %.sroa.0.0.i.i, null
  br i1 %.not.i.i, label %_ZN14GraphAlgWeaklyC2EP7V3GraphPFbPK11V3GraphEdgeE.exit, label %.lr.ph.i.i

_ZN14GraphAlgWeaklyC2EP7V3GraphPFbPK11V3GraphEdgeE.exit: ; preds = %.lr.ph.i.i, %2
  ret void
}